; Function Attrs: mustprogress uwtable
define hidden void @_ZN3smt12theory_array9new_eq_ehEii(ptr noundef nonnull align 8 dereferenceable(444) %0, i32 noundef %1, i32 noundef %2) unnamed_addr #4 align 2 {
  %4 = getelementptr inbounds nuw i8, ptr %0, i64 328
  tail call void @_ZN10union_findIN3smt12theory_arrayEE5mergeEjj(ptr noundef nonnull align 8 dereferenceable(56) %4, i32 noundef %1, i32 noundef %2)
  %5 = getelementptr inbounds nuw i8, ptr %0, i64 32
  %6 = load ptr, ptr %5, align 8, !tbaa !550
  %7 = zext i32 %1 to i64
  %8 = getelementptr inbounds nuw ptr, ptr %6, i64 %7
  %9 = load ptr, ptr %8, align 8, !tbaa !570
  %10 = zext i32 %2 to i64
  %11 = getelementptr inbounds nuw ptr, ptr %6, i64 %10
  %12 = load ptr, ptr %11, align 8, !tbaa !570
  %13 = load ptr, ptr %9, align 8, !tbaa !595
  %14 = getelementptr inbounds nuw i8, ptr %13, i64 16
  %15 = load ptr, ptr %14, align 8, !tbaa !607
  %16 = getelementptr inbounds nuw i8, ptr %15, i64 24
  %17 = load ptr, ptr %16, align 8, !tbaa !596
  %.not.i = icmp eq ptr %17, null
  br i1 %.not.i, label %_ZNK9func_decl9is_lambdaEv.exit.thread, label %_ZNK9func_decl9is_lambdaEv.exit

_ZNK9func_decl9is_lambdaEv.exit:                  ; preds = %3
  %18 = getelementptr inbounds nuw i8, ptr %17, i64 17
  %19 = load i16, ptr %18, align 1
  %20 = and i16 %19, 512
  %.not = icmp eq i16 %20, 0
  br i1 %.not, label %_ZNK9func_decl9is_lambdaEv.exit.thread, label %29

_ZNK9func_decl9is_lambdaEv.exit.thread:           ; preds = %3, %_ZNK9func_decl9is_lambdaEv.exit
  %21 = load ptr, ptr %12, align 8, !tbaa !595
  %22 = getelementptr inbounds nuw i8, ptr %21, i64 16
  %23 = load ptr, ptr %22, align 8, !tbaa !607
  %24 = getelementptr inbounds nuw i8, ptr %23, i64 24
  %25 = load ptr, ptr %24, align 8, !tbaa !596
  %.not.i8 = icmp eq ptr %25, null
  br i1 %.not.i8, label %_ZNK9func_decl9is_lambdaEv.exit9.thread, label %_ZNK9func_decl9is_lambdaEv.exit9

_ZNK9func_decl9is_lambdaEv.exit9:                 ; preds = %_ZNK9func_decl9is_lambdaEv.exit.thread
  %26 = getelementptr inbounds nuw i8, ptr %25, i64 17
  %27 = load i16, ptr %26, align 1
  %28 = and i16 %27, 512
  %.not10 = icmp eq i16 %28, 0
  br i1 %.not10, label %_ZNK9func_decl9is_lambdaEv.exit9.thread, label %29

29:                                               ; preds = %_ZNK9func_decl9is_lambdaEv.exit9, %_ZNK9func_decl9is_lambdaEv.exit
  tail call void @_ZN3smt17theory_array_base16assert_congruentEPNS_5enodeES2_(ptr noundef nonnull align 8 dereferenceable(249) %0, ptr noundef nonnull %9, ptr noundef %12)
  br label %_ZNK9func_decl9is_lambdaEv.exit9.thread

_ZNK9func_decl9is_lambdaEv.exit9.thread:          ; preds = %_ZNK9func_decl9is_lambdaEv.exit.thread, %29, %_ZNK9func_decl9is_lambdaEv.exit9
  ret void
}